target datalayout = "e-m:e-p270:32:32-p271:32:32-p272:64:64-i64:64-i128:128-f80:128-n8:16:32:64-S128"
target triple = "x86_64-pc-linux-gnu"

%struct.lv_calendar_date_t = type { i16, i8, i8 }

; Function Attrs: nounwind uwtable
define internal void @month_event_cb(ptr noundef %0) #0 {
  %2 = alloca ptr, align 8
  %3 = alloca ptr, align 8
  %4 = alloca ptr, align 8
  %5 = alloca i32, align 4
  %6 = alloca ptr, align 8
  %7 = alloca %struct.lv_calendar_date_t, align 2
  store ptr %0, ptr %2, align 8, !tbaa !3
  call void @llvm.lifetime.start.p0(i64 8, ptr %3) #4
  %8 = load ptr, ptr %2, align 8, !tbaa !3
  %9 = call ptr @lv_event_get_current_target(ptr noundef %8)
  store ptr %9, ptr %3, align 8, !tbaa !3
  call void @llvm.lifetime.start.p0(i64 8, ptr %4) #4
  %10 = load ptr, ptr %2, align 8, !tbaa !3
  %11 = call ptr @lv_event_get_user_data(ptr noundef %10)
  store ptr %11, ptr %4, align 8, !tbaa !3
  call void @llvm.lifetime.start.p0(i64 4, ptr %5) #4
  %12 = load ptr, ptr %3, align 8, !tbaa !3
  %13 = call i32 @lv_dropdown_get_selected(ptr noundef %12)
  store i32 %13, ptr %5, align 4, !tbaa !7
  call void @llvm.lifetime.start.p0(i64 8, ptr %6) #4
  %14 = load ptr, ptr %4, align 8, !tbaa !3
  %15 = call ptr @lv_calendar_get_showed_date(ptr noundef %14)
  store ptr %15, ptr %6, align 8, !tbaa !3
  call void @llvm.lifetime.start.p0(i64 4, ptr %7) #4
  %16 = load ptr, ptr %6, align 8, !tbaa !3
  call void @llvm.memcpy.p0.p0.i64(ptr align 2 %7, ptr align 2 %16, i64 4, i1 false), !tbaa.struct !10
  %17 = load i32, ptr %5, align 4, !tbaa !7
  %18 = add i32 %17, 1
  %19 = trunc i32 %18 to i8
  %20 = getelementptr inbounds nuw %struct.lv_calendar_date_t, ptr %7, i32 0, i32 1
  store i8 %19, ptr %20, align 2, !tbaa !15
  %21 = load ptr, ptr %4, align 8, !tbaa !3
  %22 = getelementptr inbounds nuw %struct.lv_calendar_date_t, ptr %7, i32 0, i32 0
  %23 = load i16, ptr %22, align 2, !tbaa !13
  %24 = zext i16 %23 to i32
  %25 = getelementptr inbounds nuw %struct.lv_calendar_date_t, ptr %7, i32 0, i32 1
  %26 = load i8, ptr %25, align 2, !tbaa !15
  %27 = sext i8 %26 to i32
  call void @lv_calendar_set_showed_date(ptr noundef %21, i32 noundef %24, i32 noundef %27)
  call void @llvm.lifetime.end.p0(i64 4, ptr %7) #4
  call void @llvm.lifetime.end.p0(i64 8, ptr %6) #4
  call void @llvm.lifetime.end.p0(i64 4, ptr %5) #4
  call void @llvm.lifetime.end.p0(i64 8, ptr %4) #4
  call void @llvm.lifetime.end.p0(i64 8, ptr %3) #4
  ret void
}