; Function Attrs: nounwind uwtable
define internal void @month_event_cb(ptr noundef %0) #0 {
  %2 = tail call ptr @lv_event_get_current_target(ptr noundef %0) #2
  %3 = tail call ptr @lv_event_get_user_data(ptr noundef %0) #2
  %4 = tail call i32 @lv_dropdown_get_selected(ptr noundef %2) #2
  %5 = tail call ptr @lv_calendar_get_showed_date(ptr noundef %3) #2
  %.sroa.0.0.copyload = load i16, ptr %5, align 2, !tbaa !6
  %6 = zext i16 %.sroa.0.0.copyload to i32
  %7 = shl i32 %4, 24
  %sext = add i32 %7, 16777216
  %8 = ashr exact i32 %sext, 24
  tail call void @lv_calendar_set_showed_date(ptr noundef %3, i32 noundef %6, i32 noundef %8) #2
  ret void
}